; Function Attrs: mustprogress uwtable
define void @_ZN6icu_7714TransliteratorC2ERKS0_(ptr noundef nonnull align 8 dereferenceable(84) initializes((0, 8)) %0, ptr noundef nonnull align 8 dereferenceable(84) %1) unnamed_addr #1 align 2 personality ptr @__gxx_personality_v0 {
  %3 = alloca i16, align 2
  store ptr getelementptr inbounds nuw inrange(-16, 136) (i8, ptr @_ZTVN6icu_7714TransliteratorE, i64 16), ptr %0, align 8, !tbaa !15
  %4 = getelementptr inbounds nuw i8, ptr %0, i64 8
  %5 = getelementptr inbounds nuw i8, ptr %1, i64 8
  invoke void @_ZN6icu_7713UnicodeStringC1ERKS0_(ptr noundef nonnull align 8 dereferenceable(64) %4, ptr noundef nonnull align 8 dereferenceable(64) %5)
          to label %6 unwind label %43

6:                                                ; preds = %2
  %7 = getelementptr inbounds nuw i8, ptr %0, i64 72
  store ptr null, ptr %7, align 8, !tbaa !17
  %8 = getelementptr inbounds nuw i8, ptr %0, i64 80
  %9 = getelementptr inbounds nuw i8, ptr %1, i64 80
  %10 = load i32, ptr %9, align 8, !tbaa !23
  store i32 %10, ptr %8, align 8, !tbaa !23
  call void @llvm.lifetime.start.p0(i64 2, ptr nonnull %3)
  store i16 0, ptr %3, align 2, !tbaa !24
  %11 = invoke noundef nonnull align 8 dereferenceable(64) ptr @_ZN6icu_7713UnicodeString8doAppendEPKDsii(ptr noundef nonnull align 8 dereferenceable(64) %4, ptr noundef nonnull %3, i32 noundef 0, i32 noundef 1)
          to label %12 unwind label %45

12:                                               ; preds = %6
  call void @llvm.lifetime.end.p0(i64 2, ptr nonnull %3)
  %13 = getelementptr inbounds nuw i8, ptr %0, i64 16
  %14 = load i16, ptr %13, align 8, !tbaa !26
  %15 = icmp slt i16 %14, 0
  %16 = ashr i16 %14, 5
  %17 = sext i16 %16 to i32
  %18 = getelementptr inbounds nuw i8, ptr %0, i64 20
  %19 = load i32, ptr %18, align 4
  %20 = select i1 %15, i32 %19, i32 %17
  %21 = add nsw i32 %20, -1
  %22 = and i16 %14, 1
  %23 = icmp ne i16 %22, 0
  %24 = icmp eq i32 %21, 0
  %or.cond.i = and i1 %23, %24
  br i1 %or.cond.i, label %25, label %26

25:                                               ; preds = %12
  invoke void @_ZN6icu_7713UnicodeString7unBogusEv(ptr noundef nonnull align 8 dereferenceable(64) %4)
          to label %_ZN6icu_7713UnicodeString8truncateEi.exit unwind label %45

26:                                               ; preds = %12
  %.not10 = icmp eq i32 %20, 0
  br i1 %.not10, label %_ZN6icu_7713UnicodeString8truncateEi.exit, label %27

27:                                               ; preds = %26
  %28 = icmp slt i32 %20, 1025
  br i1 %28, label %29, label %33

29:                                               ; preds = %27
  %30 = and i16 %14, 31
  %.tr.i.i.i = trunc i32 %21 to i16
  %31 = shl i16 %.tr.i.i.i, 5
  %32 = or disjoint i16 %31, %30
  store i16 %32, ptr %13, align 8, !tbaa !26
  br label %_ZN6icu_7713UnicodeString8truncateEi.exit

33:                                               ; preds = %27
  %34 = or i16 %14, -32
  store i16 %34, ptr %13, align 8, !tbaa !26
  store i32 %21, ptr %18, align 4, !tbaa !26
  br label %_ZN6icu_7713UnicodeString8truncateEi.exit

_ZN6icu_7713UnicodeString8truncateEi.exit:        ; preds = %33, %29, %26, %25
  %35 = getelementptr inbounds nuw i8, ptr %1, i64 72
  %36 = load ptr, ptr %35, align 8, !tbaa !17
  %.not = icmp eq ptr %36, null
  br i1 %.not, label %47, label %37

37:                                               ; preds = %_ZN6icu_7713UnicodeString8truncateEi.exit
  %38 = load ptr, ptr %36, align 8, !tbaa !15
  %39 = getelementptr inbounds nuw i8, ptr %38, i64 24
  %40 = load ptr, ptr %39, align 8
  %41 = invoke noundef ptr %40(ptr noundef nonnull align 8 dereferenceable(16) %36)
          to label %42 unwind label %45

42:                                               ; preds = %37
  store ptr %41, ptr %7, align 8, !tbaa !17
  br label %47

43:                                               ; preds = %2
  %44 = landingpad { ptr, i32 }
          cleanup
  br label %48

45:                                               ; preds = %25, %6, %37
  %46 = landingpad { ptr, i32 }
          cleanup
  call void @_ZN6icu_7713UnicodeStringD1Ev(ptr noundef nonnull align 8 dereferenceable(64) %4) #21
  br label %48

47:                                               ; preds = %42, %_ZN6icu_7713UnicodeString8truncateEi.exit
  ret void

48:                                               ; preds = %45, %43
  %.pn = phi { ptr, i32 } [ %46, %45 ], [ %44, %43 ]
  call void @_ZN6icu_777UObjectD2Ev(ptr noundef nonnull align 8 dereferenceable(8) %0) #21
  resume { ptr, i32 } %.pn
}